target datalayout = "e-m:e-p270:32:32-p271:32:32-p272:64:64-i64:64-i128:128-f80:128-n8:16:32:64-S128"
target triple = "x86_64-pc-linux-gnu"

%struct.lv_color_t = type { i8, i8, i8 }
%struct.lv_draw_dsc_base_t = type { ptr, i32, i32, i32, ptr, i64, ptr }
%struct.lv_draw_label_dsc_t = type { %struct.lv_draw_dsc_base_t, ptr, i32, ptr, i32, i32, %struct.lv_color_t, %struct.lv_color_t, %struct.lv_color_t, i32, i32, i32, i32, i32, i8, i32, i32, i32, i8, ptr }
%struct._lv_draw_task_t = type { ptr, i32, %struct.lv_area_t, %struct.lv_area_t, %struct.lv_area_t, %struct.lv_area_t, ptr, ptr, i32, ptr, i8, i8 }
%struct.lv_area_t = type { i32, i32, i32, i32 }

; Function Attrs: nounwind uwtable
define void @lv_draw_label(ptr noundef %0, ptr noundef %1, ptr noundef %2) #0 {
  %4 = alloca ptr, align 8
  %5 = alloca ptr, align 8
  %6 = alloca ptr, align 8
  %7 = alloca ptr, align 8
  %8 = alloca ptr, align 8
  store ptr %0, ptr %4, align 8, !tbaa !44
  store ptr %1, ptr %5, align 8, !tbaa !3
  store ptr %2, ptr %6, align 8, !tbaa !3
  %9 = load ptr, ptr %5, align 8, !tbaa !3
  %10 = getelementptr inbounds nuw %struct.lv_draw_label_dsc_t, ptr %9, i32 0, i32 14
  %11 = load i8, ptr %10, align 8, !tbaa !25
  %12 = zext i8 %11 to i32
  %13 = icmp sle i32 %12, 2
  br i1 %13, label %14, label %15

14:                                               ; preds = %3
  br label %84

15:                                               ; preds = %3
  %16 = load ptr, ptr %5, align 8, !tbaa !3
  %17 = getelementptr inbounds nuw %struct.lv_draw_label_dsc_t, ptr %16, i32 0, i32 1
  %18 = load ptr, ptr %17, align 8, !tbaa !45
  %19 = icmp eq ptr %18, null
  br i1 %19, label %28, label %20

20:                                               ; preds = %15
  %21 = load ptr, ptr %5, align 8, !tbaa !3
  %22 = getelementptr inbounds nuw %struct.lv_draw_label_dsc_t, ptr %21, i32 0, i32 1
  %23 = load ptr, ptr %22, align 8, !tbaa !45
  %24 = getelementptr inbounds i8, ptr %23, i64 0
  %25 = load i8, ptr %24, align 1, !tbaa !18
  %26 = sext i8 %25 to i32
  %27 = icmp eq i32 %26, 0
  br i1 %27, label %28, label %29

28:                                               ; preds = %20, %15
  br label %84

29:                                               ; preds = %20
  %30 = load ptr, ptr %5, align 8, !tbaa !3
  %31 = getelementptr inbounds nuw %struct.lv_draw_label_dsc_t, ptr %30, i32 0, i32 3
  %32 = load ptr, ptr %31, align 8, !tbaa !30
  %33 = icmp eq ptr %32, null
  br i1 %33, label %34, label %37

34:                                               ; preds = %29
  br label %35

35:                                               ; preds = %34
  br label %36

36:                                               ; preds = %35
  br label %84

37:                                               ; preds = %29
  call void @llvm.lifetime.start.p0(i64 8, ptr %7) #5
  %38 = load ptr, ptr %4, align 8, !tbaa !44
  %39 = load ptr, ptr %6, align 8, !tbaa !3
  %40 = call ptr @lv_draw_add_task(ptr noundef %38, ptr noundef %39)
  store ptr %40, ptr %7, align 8, !tbaa !35
  %41 = call ptr @lv_malloc(i64 noundef 144)
  %42 = load ptr, ptr %7, align 8, !tbaa !35
  %43 = getelementptr inbounds nuw %struct._lv_draw_task_t, ptr %42, i32 0, i32 9
  store ptr %41, ptr %43, align 8, !tbaa !41
  br label %44

44:                                               ; preds = %37
  %45 = load ptr, ptr %7, align 8, !tbaa !35
  %46 = getelementptr inbounds nuw %struct._lv_draw_task_t, ptr %45, i32 0, i32 9
  %47 = load ptr, ptr %46, align 8, !tbaa !41
  %48 = icmp ne ptr %47, null
  br i1 %48, label %55, label %49

49:                                               ; preds = %44
  br label %50

50:                                               ; preds = %49
  br label %51

51:                                               ; preds = %50
  br label %52

52:                                               ; preds = %51
  br label %53

53:                                               ; preds = %54, %52
  br label %54

54:                                               ; preds = %53
  br label %53

55:                                               ; preds = %44
  br label %56

56:                                               ; preds = %55
  br label %57

57:                                               ; preds = %56
  %58 = load ptr, ptr %7, align 8, !tbaa !35
  %59 = getelementptr inbounds nuw %struct._lv_draw_task_t, ptr %58, i32 0, i32 9
  %60 = load ptr, ptr %59, align 8, !tbaa !41
  %61 = load ptr, ptr %5, align 8, !tbaa !3
  %62 = call ptr @lv_memcpy(ptr noundef %60, ptr noundef %61, i64 noundef 144)
  %63 = load ptr, ptr %7, align 8, !tbaa !35
  %64 = getelementptr inbounds nuw %struct._lv_draw_task_t, ptr %63, i32 0, i32 1
  store i32 5, ptr %64, align 8, !tbaa !37
  %65 = load ptr, ptr %5, align 8, !tbaa !3
  %66 = getelementptr inbounds nuw %struct.lv_draw_label_dsc_t, ptr %65, i32 0, i32 18
  %67 = load i8, ptr %66, align 8
  %68 = lshr i8 %67, 6
  %69 = and i8 %68, 1
  %70 = icmp ne i8 %69, 0
  br i1 %70, label %71, label %81

71:                                               ; preds = %57
  call void @llvm.lifetime.start.p0(i64 8, ptr %8) #5
  %72 = load ptr, ptr %7, align 8, !tbaa !35
  %73 = getelementptr inbounds nuw %struct._lv_draw_task_t, ptr %72, i32 0, i32 9
  %74 = load ptr, ptr %73, align 8, !tbaa !41
  store ptr %74, ptr %8, align 8, !tbaa !3
  %75 = load ptr, ptr %5, align 8, !tbaa !3
  %76 = getelementptr inbounds nuw %struct.lv_draw_label_dsc_t, ptr %75, i32 0, i32 1
  %77 = load ptr, ptr %76, align 8, !tbaa !45
  %78 = call ptr @lv_strdup(ptr noundef %77)
  %79 = load ptr, ptr %8, align 8, !tbaa !3
  %80 = getelementptr inbounds nuw %struct.lv_draw_label_dsc_t, ptr %79, i32 0, i32 1
  store ptr %78, ptr %80, align 8, !tbaa !45
  call void @llvm.lifetime.end.p0(i64 8, ptr %8) #5
  br label %81

81:                                               ; preds = %71, %57
  %82 = load ptr, ptr %4, align 8, !tbaa !44
  %83 = load ptr, ptr %7, align 8, !tbaa !35
  call void @lv_draw_finalize_task_creation(ptr noundef %82, ptr noundef %83)
  call void @llvm.lifetime.end.p0(i64 8, ptr %7) #5
  br label %84

84:                                               ; preds = %81, %36, %28, %14
  ret void
}