; Function Attrs: nounwind uwtable
define void @lv_draw_label(ptr noundef %0, ptr noundef %1, ptr noundef %2) local_unnamed_addr #0 {
  %4 = getelementptr inbounds nuw i8, ptr %1, i64 112
  %5 = load i8, ptr %4, align 8, !tbaa !21
  %6 = icmp ult i8 %5, 3
  br i1 %6, label %34, label %7

7:                                                ; preds = %3
  %8 = getelementptr inbounds nuw i8, ptr %1, i64 48
  %9 = load ptr, ptr %8, align 8, !tbaa !37
  %10 = icmp eq ptr %9, null
  br i1 %10, label %34, label %11

11:                                               ; preds = %7
  %12 = load i8, ptr %9, align 1, !tbaa !38
  %13 = icmp eq i8 %12, 0
  br i1 %13, label %34, label %14

14:                                               ; preds = %11
  %15 = getelementptr inbounds nuw i8, ptr %1, i64 64
  %16 = load ptr, ptr %15, align 8, !tbaa !26
  %17 = icmp eq ptr %16, null
  br i1 %17, label %34, label %18

18:                                               ; preds = %14
  %19 = tail call ptr @lv_draw_add_task(ptr noundef %0, ptr noundef %2) #6
  %20 = tail call ptr @lv_malloc(i64 noundef 144) #6
  %21 = getelementptr inbounds nuw i8, ptr %19, i64 104
  store ptr %20, ptr %21, align 8, !tbaa !36
  %.not = icmp eq ptr %20, null
  br i1 %.not, label %.preheader, label %22

.preheader:                                       ; preds = %18, %.preheader
  br label %.preheader

22:                                               ; preds = %18
  %23 = tail call ptr @lv_memcpy(ptr noundef nonnull %20, ptr noundef nonnull %1, i64 noundef 144) #6
  %24 = getelementptr inbounds nuw i8, ptr %19, i64 8
  store i32 5, ptr %24, align 8, !tbaa !31
  %25 = getelementptr inbounds nuw i8, ptr %1, i64 128
  %26 = load i8, ptr %25, align 8
  %27 = and i8 %26, 64
  %.not18 = icmp eq i8 %27, 0
  br i1 %.not18, label %33, label %28

28:                                               ; preds = %22
  %29 = load ptr, ptr %21, align 8, !tbaa !36
  %30 = load ptr, ptr %8, align 8, !tbaa !37
  %31 = tail call ptr @lv_strdup(ptr noundef %30) #6
  %32 = getelementptr inbounds nuw i8, ptr %29, i64 48
  store ptr %31, ptr %32, align 8, !tbaa !37
  br label %33

33:                                               ; preds = %28, %22
  tail call void @lv_draw_finalize_task_creation(ptr noundef %0, ptr noundef nonnull %19) #6
  br label %34

34:                                               ; preds = %14, %7, %11, %3, %33
  ret void
}